; Function Attrs: mustprogress nofree norecurse nounwind willreturn uwtable
define void @_ZN6gmxapi7getWorkERKNS_6System4ImplE(ptr dead_on_unwind noalias nocapture writable writeonly sret(%"class.std::shared_ptr") align 8 %0, ptr nocapture noundef nonnull readonly align 8 dereferenceable(32) %1) local_unnamed_addr #9 personality ptr @__gxx_personality_v0 {
  %3 = load <2 x ptr>, ptr %1, align 8
  store <2 x ptr> %3, ptr %0, align 8
  %4 = extractelement <2 x ptr> %3, i64 1
  %.not.i.i.i = icmp eq ptr %4, null
  br i1 %.not.i.i.i, label %_ZNSt10shared_ptrIN6gmxapi8WorkflowEEC2ERKS2_.exit, label %5

5:                                                ; preds = %2
  %6 = getelementptr inbounds i8, ptr %4, i64 8
  %7 = load i8, ptr @__libc_single_threaded, align 1
  %.not.i.i.i.i = icmp eq i8 %7, 0
  br i1 %.not.i.i.i.i, label %11, label %8

8:                                                ; preds = %5
  %9 = load i32, ptr %6, align 4
  %10 = add nsw i32 %9, 1
  store i32 %10, ptr %6, align 4
  br label %_ZNSt10shared_ptrIN6gmxapi8WorkflowEEC2ERKS2_.exit

11:                                               ; preds = %5
  %12 = atomicrmw volatile add ptr %6, i32 1 acq_rel, align 4
  br label %_ZNSt10shared_ptrIN6gmxapi8WorkflowEEC2ERKS2_.exit

_ZNSt10shared_ptrIN6gmxapi8WorkflowEEC2ERKS2_.exit: ; preds = %2, %8, %11
  ret void
}